(dp0
I1
(lp1
I3
aI15
aI10
aI8
aI1
aI4
aI9
aI6
aI7
aI13
aI12
aI11
aI14
aI2
aI5
asI2
(lp2
I13
aI4
aI5
aI10
aI15
aI8
aI11
aI2
aI7
aI3
aI9
aI6
aI12
aI1
aI14
asI3
(lp3
I9
aI2
aI8
aI3
aI4
aI14
aI13
aI1
aI5
aI7
aI10
aI6
aI11
aI15
aI12
asI4
(lp4
I4
aI7
aI14
aI1
aI12
aI3
aI13
aI2
aI15
aI9
aI8
aI11
aI10
aI6
aI5
asI5
(lp5
I13
aI9
aI4
aI6
aI1
aI15
aI8
aI11
aI7
aI14
aI5
aI12
aI10
aI2
aI3
asI6
(lp6
I3
aI2
aI14
aI15
aI9
aI13
aI10
aI11
aI12
aI7
aI6
aI5
aI1
aI8
aI4
asI7
(lp7
I5
aI12
aI13
aI11
aI3
aI6
aI7
aI4
aI15
aI14
aI8
aI2
aI10
aI9
aI1
asI8
(lp8
I4
aI13
aI5
aI14
aI12
aI1
aI2
aI10
aI7
aI6
aI3
aI9
aI11
aI8
aI15
asI9
(lp9
I3
aI12
aI15
aI4
aI1
aI9
aI11
aI5
aI6
aI7
aI8
aI13
aI14
aI2
aI10
asI10
(lp10
I2
aI7
aI1
aI4
aI15
aI9
aI6
aI14
aI10
aI5
aI13
aI12
aI3
aI8
aI11
asI11
(lp11
I3
aI6
aI14
aI4
aI15
aI9
aI2
aI5
aI11
aI7
aI10
aI1
aI13
aI12
aI8
asI12
(lp12
I3
aI7
aI1
aI10
aI4
aI5
aI11
aI14
aI13
aI9
aI8
aI6
aI15
aI2
aI12
asI13
(lp13
I14
aI5
aI13
aI1
aI10
aI3
aI15
aI9
aI8
aI6
aI7
aI12
aI4
aI11
aI2
asI14
(lp14
I8
aI10
aI13
aI11
aI15
aI14
aI7
aI1
aI5
aI12
aI6
aI4
aI2
aI3
aI9
asI15
(lp15
I3
aI14
aI10
aI15
aI13
aI1
aI11
aI5
aI8
aI12
aI2
aI6
aI7
aI9
aI4
as.