(dp0
I1
(lp1
I2
aI9
aI1
aI10
aI13
aI6
aI4
aI3
aI12
aI7
aI8
aI15
aI11
aI14
aI5
asI2
(lp2
I14
aI10
aI2
aI5
aI12
aI1
aI9
aI15
aI8
aI11
aI7
aI3
aI4
aI6
aI13
asI3
(lp3
I1
aI14
aI7
aI4
aI6
aI10
aI9
aI5
aI3
aI15
aI2
aI8
aI13
aI12
aI11
asI4
(lp4
I4
aI6
aI11
aI7
aI3
aI2
aI13
aI9
aI14
aI1
aI5
aI8
aI10
aI15
aI12
asI5
(lp5
I4
aI11
aI8
aI6
aI10
aI7
aI9
aI15
aI3
aI2
aI5
aI1
aI12
aI13
aI14
asI6
(lp6
I10
aI15
aI6
aI14
aI11
aI9
aI13
aI4
aI5
aI2
aI3
aI12
aI1
aI7
aI8
asI7
(lp7
I15
aI3
aI5
aI1
aI4
aI8
aI12
aI9
aI7
aI10
aI2
aI6
aI14
aI13
aI11
asI8
(lp8
I6
aI9
aI10
aI5
aI2
aI3
aI8
aI13
aI7
aI11
aI4
aI14
aI12
aI15
aI1
asI9
(lp9
I11
aI8
aI6
aI10
aI3
aI15
aI5
aI12
aI9
aI13
aI1
aI2
aI14
aI7
aI4
asI10
(lp10
I1
aI4
aI11
aI12
aI15
aI5
aI6
aI3
aI9
aI13
aI10
aI2
aI7
aI8
aI14
asI11
(lp11
I15
aI6
aI2
aI12
aI3
aI9
aI1
aI7
aI8
aI11
aI10
aI4
aI14
aI5
aI13
asI12
(lp12
I14
aI13
aI12
aI1
aI2
aI8
aI11
aI10
aI9
aI6
aI7
aI5
aI15
aI3
aI4
asI13
(lp13
I7
aI4
aI9
aI11
aI5
aI8
aI10
aI1
aI15
aI3
aI13
aI12
aI6
aI2
aI14
asI14
(lp14
I13
aI4
aI11
aI5
aI3
aI9
aI6
aI7
aI8
aI1
aI15
aI12
aI10
aI2
aI14
asI15
(lp15
I8
aI5
aI9
aI10
aI11
aI15
aI7
aI4
aI1
aI13
aI12
aI6
aI3
aI14
aI2
as.