(dp0
I1
(lp1
I14
aI8
aI9
aI13
aI18
aI2
aI1
aI15
aI19
aI17
aI10
aI20
aI7
aI16
aI11
aI5
aI6
aI12
aI3
aI4
asI2
(lp2
I4
aI18
aI7
aI10
aI5
aI16
aI19
aI14
aI20
aI2
aI12
aI11
aI9
aI17
aI8
aI13
aI6
aI1
aI15
aI3
asI3
(lp3
I15
aI20
aI12
aI13
aI5
aI11
aI1
aI9
aI4
aI17
aI18
aI10
aI6
aI16
aI3
aI8
aI2
aI7
aI14
aI19
asI4
(lp4
I11
aI3
aI18
aI4
aI1
aI16
aI10
aI7
aI19
aI14
aI12
aI2
aI9
aI6
aI15
aI17
aI8
aI13
aI20
aI5
asI5
(lp5
I12
aI9
aI17
aI10
aI6
aI8
aI19
aI14
aI5
aI13
aI18
aI2
aI3
aI15
aI11
aI16
aI4
aI7
aI20
aI1
asI6
(lp6
I5
aI20
aI11
aI2
aI4
aI1
aI15
aI16
aI19
aI14
aI10
aI8
aI7
aI12
aI3
aI6
aI9
aI13
aI18
aI17
asI7
(lp7
I6
aI12
aI19
aI20
aI16
aI2
aI1
aI15
aI8
aI14
aI5
aI9
aI11
aI13
aI17
aI4
aI10
aI3
aI7
aI18
asI8
(lp8
I11
aI4
aI13
aI16
aI19
aI5
aI18
aI1
aI3
aI7
aI20
aI17
aI14
aI8
aI9
aI15
aI2
aI10
aI6
aI12
asI9
(lp9
I5
aI4
aI17
aI20
aI7
aI16
aI8
aI13
aI1
aI15
aI2
aI9
aI19
aI11
aI3
aI14
aI6
aI10
aI12
aI18
asI10
(lp10
I19
aI13
aI14
aI7
aI5
aI10
aI2
aI17
aI3
aI12
aI11
aI4
aI1
aI15
aI16
aI8
aI18
aI6
aI20
aI9
asI11
(lp11
I5
aI1
aI17
aI7
aI8
aI15
aI14
aI3
aI4
aI12
aI11
aI10
aI2
aI16
aI13
aI18
aI9
aI20
aI6
aI19
asI12
(lp12
I20
aI1
aI2
aI4
aI6
aI10
aI14
aI11
aI19
aI18
aI12
aI7
aI9
aI17
aI3
aI16
aI5
aI8
aI15
aI13
asI13
(lp13
I13
aI4
aI7
aI18
aI11
aI14
aI9
aI15
aI1
aI12
aI19
aI3
aI17
aI5
aI6
aI20
aI10
aI16
aI2
aI8
asI14
(lp14
I1
aI17
aI11
aI10
aI19
aI5
aI2
aI14
aI16
aI20
aI4
aI15
aI7
aI18
aI6
aI12
aI3
aI8
aI13
aI9
asI15
(lp15
I7
aI18
aI14
aI4
aI19
aI5
aI17
aI10
aI13
aI9
aI16
aI3
aI8
aI20
aI2
aI15
aI6
aI1
aI11
aI12
asI16
(lp16
I14
aI9
aI4
aI1
aI5
aI8
aI16
aI18
aI17
aI3
aI13
aI10
aI15
aI12
aI7
aI19
aI20
aI11
aI6
aI2
asI17
(lp17
I5
aI10
aI8
aI2
aI17
aI19
aI12
aI18
aI11
aI1
aI20
aI3
aI6
aI4
aI14
aI7
aI15
aI13
aI16
aI9
asI18
(lp18
I20
aI4
aI2
aI14
aI3
aI16
aI8
aI12
aI19
aI11
aI17
aI6
aI1
aI18
aI15
aI9
aI5
aI7
aI10
aI13
asI19
(lp19
I5
aI14
aI20
aI8
aI9
aI6
aI2
aI3
aI18
aI15
aI16
aI13
aI10
aI4
aI19
aI1
aI11
aI17
aI7
aI12
asI20
(lp20
I10
aI11
aI9
aI8
aI6
aI14
aI7
aI15
aI17
aI19
aI3
aI5
aI13
aI1
aI2
aI4
aI20
aI12
aI16
aI18
as.